target datalayout = "e-m:e-p270:32:32-p271:32:32-p272:64:64-i64:64-i128:128-f80:128-n8:16:32:64-S128"
target triple = "x86_64-pc-linux-gnu"

%struct.VVCFrameContext = type { ptr, [17 x %struct.VVCFrame], ptr, ptr, %struct.VVCFrameParamSets, ptr, i32, i32, ptr, %struct.VVCDSPContext, %struct.VideoDSPContext, ptr, i64, ptr, ptr, ptr, ptr, %struct.anon }
%struct.VVCFrame = type { ptr, ptr, ptr, ptr, ptr, ptr, i32, i32, i32, %struct.VVCWindow, i32, i32, ptr, ptr, i16, i8, ptr }
%struct.VVCWindow = type { i16, i16, i16, i16 }
%struct.VVCFrameParamSets = type { ptr, ptr, %struct.VVCPH, [8 x ptr], %struct.VVCLMCS, ptr }
%struct.VVCPH = type { ptr, ptr, i32, i32, i8, [3 x i16], i8, [3 x i16], %struct.PredWeightTable }
%struct.PredWeightTable = type { [2 x i8], [2 x i8], [2 x [2 x [15 x i8]]], [2 x [3 x [15 x i16]]], [2 x [3 x [15 x i16]]] }
%struct.VVCLMCS = type { i8, i8, %union.anon, %union.anon, [17 x i16], [16 x i16] }
%union.anon = type { [4096 x i16] }
%struct.VVCDSPContext = type { %struct.VVCInterDSPContext, %struct.VVCIntraDSPContext, %struct.VVCItxDSPContext, %struct.VVCLMCSDSPContext, %struct.VVCLFDSPContext, %struct.VVCSAODSPContext, %struct.VVCALFDSPContext }
%struct.VVCInterDSPContext = type { [2 x [7 x [2 x [2 x ptr]]]], [2 x [7 x [2 x [2 x ptr]]]], [2 x [7 x [2 x [2 x ptr]]]], [2 x [7 x ptr]], [2 x [7 x ptr]], [2 x [7 x ptr]], ptr, ptr, ptr, ptr, ptr, ptr, ptr, ptr, ptr, ptr, ptr, [2 x [2 x ptr]] }
%struct.VVCIntraDSPContext = type { ptr, ptr, ptr, ptr, ptr, ptr, ptr, ptr, ptr, ptr }
%struct.VVCItxDSPContext = type { ptr, ptr, [3 x [6 x ptr]], ptr, ptr }
%struct.VVCLMCSDSPContext = type { ptr }
%struct.VVCLFDSPContext = type { [2 x ptr], [2 x ptr], [2 x ptr] }
%struct.VVCSAODSPContext = type { [9 x ptr], [9 x ptr], [2 x ptr] }
%struct.VVCALFDSPContext = type { [2 x ptr], ptr, ptr, ptr }
%struct.VideoDSPContext = type { ptr, ptr }
%struct.anon = type { ptr, ptr, ptr, ptr, [2 x ptr], [2 x ptr], [2 x ptr], [2 x ptr], [2 x ptr], [3 x ptr], ptr, ptr, [2 x ptr], ptr, ptr, [2 x ptr], ptr, ptr, ptr, [2 x ptr], ptr, [3 x ptr], ptr, [2 x ptr], [2 x ptr], [2 x ptr], [2 x [3 x ptr]], [2 x ptr], [2 x ptr], [3 x ptr], [3 x ptr], [3 x [2 x ptr]], [3 x [2 x ptr]], ptr, ptr, ptr, [3 x ptr], %struct.anon.0 }
%struct.anon.0 = type { i32, i32, i32, i32, i32, i32, i32, i32, i32, i32, i32, i32 }
%struct.VVCFrameThread = type { i32, ptr, ptr, i32, i32, i32, i32, i32, i32, [2 x i32], %union.pthread_mutex_t, %union.pthread_cond_t }
%union.pthread_mutex_t = type { %struct.__pthread_mutex_s }
%struct.__pthread_mutex_s = type { i32, i32, i32, i32, i32, i16, i16, %struct.__pthread_internal_list }
%struct.__pthread_internal_list = type { ptr, ptr }
%union.pthread_cond_t = type { %struct.__pthread_cond_s }
%struct.__pthread_cond_s = type { %union.__atomic_wide_counter, %union.__atomic_wide_counter, [2 x i32], [2 x i32], i32, i32, [2 x i32] }
%union.__atomic_wide_counter = type { i64 }
%struct.VVCRowThread = type { [2 x i32] }

; Function Attrs: nounwind uwtable
define internal void @report_frame_progress(ptr noundef %0, i32 noundef %1, i32 noundef %2) #0 {
  %4 = alloca ptr, align 8
  %5 = alloca i32, align 4
  %6 = alloca i32, align 4
  %7 = alloca ptr, align 8
  %8 = alloca i32, align 4
  %9 = alloca i32, align 4
  %10 = alloca i32, align 4
  %11 = alloca i32, align 4
  %12 = alloca i32, align 4
  %13 = alloca i32, align 4
  %14 = alloca i32, align 4
  store ptr %0, ptr %4, align 8, !tbaa !82
  store i32 %1, ptr %5, align 4, !tbaa !9
  store i32 %2, ptr %6, align 4, !tbaa !9
  call void @llvm.lifetime.start.p0(i64 8, ptr %7) #7
  %15 = load ptr, ptr %4, align 8, !tbaa !82
  %16 = getelementptr inbounds nuw %struct.VVCFrameContext, ptr %15, i32 0, i32 11
  %17 = load ptr, ptr %16, align 8, !tbaa !31
  store ptr %17, ptr %7, align 8, !tbaa !68
  call void @llvm.lifetime.start.p0(i64 4, ptr %8) #7
  %18 = load ptr, ptr %7, align 8, !tbaa !68
  %19 = getelementptr inbounds nuw %struct.VVCFrameThread, ptr %18, i32 0, i32 3
  %20 = load i32, ptr %19, align 8, !tbaa !96
  store i32 %20, ptr %8, align 4, !tbaa !9
  call void @llvm.lifetime.start.p0(i64 4, ptr %9) #7
  %21 = load ptr, ptr %7, align 8, !tbaa !68
  %22 = getelementptr inbounds nuw %struct.VVCFrameThread, ptr %21, i32 0, i32 1
  %23 = load ptr, ptr %22, align 8, !tbaa !102
  %24 = load i32, ptr %5, align 4, !tbaa !9
  %25 = sext i32 %24 to i64
  %26 = getelementptr inbounds %struct.VVCRowThread, ptr %23, i64 %25
  %27 = getelementptr inbounds nuw %struct.VVCRowThread, ptr %26, i32 0, i32 0
  %28 = load i32, ptr %6, align 4, !tbaa !9
  %29 = zext i32 %28 to i64
  %30 = getelementptr inbounds nuw [2 x i32], ptr %27, i64 0, i64 %29
  store i32 1, ptr %10, align 4, !tbaa !9
  %31 = load i32, ptr %10, align 4
  %32 = atomicrmw add ptr %30, i32 %31 seq_cst, align 4
  store i32 %32, ptr %11, align 4
  %33 = load i32, ptr %11, align 4, !tbaa !9
  %34 = load ptr, ptr %7, align 8, !tbaa !68
  %35 = getelementptr inbounds nuw %struct.VVCFrameThread, ptr %34, i32 0, i32 4
  %36 = load i32, ptr %35, align 4, !tbaa !87
  %37 = sub nsw i32 %36, 1
  %38 = icmp eq i32 %33, %37
  br i1 %38, label %39, label %114

39:                                               ; preds = %3
  call void @llvm.lifetime.start.p0(i64 4, ptr %12) #7
  %40 = load ptr, ptr %7, align 8, !tbaa !68
  %41 = getelementptr inbounds nuw %struct.VVCFrameThread, ptr %40, i32 0, i32 10
  %42 = call i32 @pthread_mutex_lock(ptr noundef %41) #7
  %43 = load ptr, ptr %7, align 8, !tbaa !68
  %44 = getelementptr inbounds nuw %struct.VVCFrameThread, ptr %43, i32 0, i32 9
  %45 = load i32, ptr %6, align 4, !tbaa !9
  %46 = zext i32 %45 to i64
  %47 = getelementptr inbounds nuw [2 x i32], ptr %44, i64 0, i64 %46
  %48 = load i32, ptr %47, align 4, !tbaa !9
  store i32 %48, ptr %9, align 4, !tbaa !9
  store i32 %48, ptr %12, align 4, !tbaa !9
  br label %49

49:                                               ; preds = %74, %39
  %50 = load i32, ptr %12, align 4, !tbaa !9
  %51 = load ptr, ptr %7, align 8, !tbaa !68
  %52 = getelementptr inbounds nuw %struct.VVCFrameThread, ptr %51, i32 0, i32 5
  %53 = load i32, ptr %52, align 8, !tbaa !94
  %54 = icmp slt i32 %50, %53
  br i1 %54, label %55, label %72

55:                                               ; preds = %49
  %56 = load ptr, ptr %7, align 8, !tbaa !68
  %57 = getelementptr inbounds nuw %struct.VVCFrameThread, ptr %56, i32 0, i32 1
  %58 = load ptr, ptr %57, align 8, !tbaa !102
  %59 = load i32, ptr %12, align 4, !tbaa !9
  %60 = sext i32 %59 to i64
  %61 = getelementptr inbounds %struct.VVCRowThread, ptr %58, i64 %60
  %62 = getelementptr inbounds nuw %struct.VVCRowThread, ptr %61, i32 0, i32 0
  %63 = load i32, ptr %6, align 4, !tbaa !9
  %64 = zext i32 %63 to i64
  %65 = getelementptr inbounds nuw [2 x i32], ptr %62, i64 0, i64 %64
  %66 = load atomic i32, ptr %65 seq_cst, align 4
  store i32 %66, ptr %13, align 4
  %67 = load i32, ptr %13, align 4, !tbaa !9
  %68 = load ptr, ptr %7, align 8, !tbaa !68
  %69 = getelementptr inbounds nuw %struct.VVCFrameThread, ptr %68, i32 0, i32 4
  %70 = load i32, ptr %69, align 4, !tbaa !87
  %71 = icmp eq i32 %67, %70
  br label %72

72:                                               ; preds = %55, %49
  %73 = phi i1 [ false, %49 ], [ %71, %55 ]
  br i1 %73, label %74, label %77

74:                                               ; preds = %72
  %75 = load i32, ptr %12, align 4, !tbaa !9
  %76 = add nsw i32 %75, 1
  store i32 %76, ptr %12, align 4, !tbaa !9
  br label %49, !llvm.loop !201

77:                                               ; preds = %72
  %78 = load i32, ptr %9, align 4, !tbaa !9
  %79 = load i32, ptr %12, align 4, !tbaa !9
  %80 = icmp ne i32 %78, %79
  br i1 %80, label %81, label %88

81:                                               ; preds = %77
  %82 = load i32, ptr %12, align 4, !tbaa !9
  %83 = load ptr, ptr %7, align 8, !tbaa !68
  %84 = getelementptr inbounds nuw %struct.VVCFrameThread, ptr %83, i32 0, i32 9
  %85 = load i32, ptr %6, align 4, !tbaa !9
  %86 = zext i32 %85 to i64
  %87 = getelementptr inbounds nuw [2 x i32], ptr %84, i64 0, i64 %86
  store i32 %82, ptr %87, align 4, !tbaa !9
  br label %88

88:                                               ; preds = %81, %77
  %89 = load ptr, ptr %7, align 8, !tbaa !68
  %90 = getelementptr inbounds nuw %struct.VVCFrameThread, ptr %89, i32 0, i32 10
  %91 = call i32 @pthread_mutex_unlock(ptr noundef %90) #7
  %92 = load i32, ptr %9, align 4, !tbaa !9
  %93 = load i32, ptr %12, align 4, !tbaa !9
  %94 = icmp ne i32 %92, %93
  br i1 %94, label %95, label %113

95:                                               ; preds = %88
  call void @llvm.lifetime.start.p0(i64 4, ptr %14) #7
  %96 = load i32, ptr %12, align 4, !tbaa !9
  %97 = load ptr, ptr %7, align 8, !tbaa !68
  %98 = getelementptr inbounds nuw %struct.VVCFrameThread, ptr %97, i32 0, i32 5
  %99 = load i32, ptr %98, align 8, !tbaa !94
  %100 = icmp eq i32 %96, %99
  br i1 %100, label %101, label %102

101:                                              ; preds = %95
  br label %106

102:                                              ; preds = %95
  %103 = load i32, ptr %12, align 4, !tbaa !9
  %104 = load i32, ptr %8, align 4, !tbaa !9
  %105 = mul nsw i32 %103, %104
  br label %106

106:                                              ; preds = %102, %101
  %107 = phi i32 [ 2147483647, %101 ], [ %105, %102 ]
  store i32 %107, ptr %14, align 4, !tbaa !9
  %108 = load ptr, ptr %4, align 8, !tbaa !82
  %109 = getelementptr inbounds nuw %struct.VVCFrameContext, ptr %108, i32 0, i32 8
  %110 = load ptr, ptr %109, align 8, !tbaa !148
  %111 = load i32, ptr %6, align 4, !tbaa !9
  %112 = load i32, ptr %14, align 4, !tbaa !9
  call void @ff_vvc_report_progress(ptr noundef %110, i32 noundef %111, i32 noundef %112)
  call void @llvm.lifetime.end.p0(i64 4, ptr %14) #7
  br label %113

113:                                              ; preds = %106, %88
  call void @llvm.lifetime.end.p0(i64 4, ptr %12) #7
  br label %114

114:                                              ; preds = %113, %3
  call void @llvm.lifetime.end.p0(i64 4, ptr %9) #7
  call void @llvm.lifetime.end.p0(i64 4, ptr %8) #7
  call void @llvm.lifetime.end.p0(i64 8, ptr %7) #7
  ret void
}