; Function Attrs: nounwind uwtable
define internal fastcc void @report_frame_progress(ptr noundef readonly captures(none) %0, i32 noundef %1, i32 noundef range(i32 0, 2) %2) unnamed_addr #0 {
  %4 = getelementptr inbounds nuw i8, ptr %0, i64 21288
  %5 = load ptr, ptr %4, align 8, !tbaa !23
  %6 = getelementptr inbounds nuw i8, ptr %5, i64 24
  %7 = load i32, ptr %6, align 8, !tbaa !97
  %8 = getelementptr inbounds nuw i8, ptr %5, i64 8
  %9 = load ptr, ptr %8, align 8, !tbaa !103
  %10 = sext i32 %1 to i64
  %11 = getelementptr inbounds %struct.VVCRowThread, ptr %9, i64 %10
  %12 = zext nneg i32 %2 to i64
  %13 = getelementptr inbounds nuw [2 x i32], ptr %11, i64 0, i64 %12
  %14 = atomicrmw add ptr %13, i32 1 seq_cst, align 4
  %15 = getelementptr inbounds nuw i8, ptr %5, i64 28
  %16 = load i32, ptr %15, align 4, !tbaa !89
  %17 = add nsw i32 %16, -1
  %18 = icmp eq i32 %14, %17
  br i1 %18, label %19, label %48

19:                                               ; preds = %3
  %20 = getelementptr inbounds nuw i8, ptr %5, i64 56
  %21 = tail call i32 @pthread_mutex_lock(ptr noundef nonnull %20) #7
  %22 = getelementptr inbounds nuw i8, ptr %5, i64 48
  %23 = getelementptr inbounds nuw [2 x i32], ptr %22, i64 0, i64 %12
  %24 = load i32, ptr %23, align 4, !tbaa !128
  %25 = getelementptr inbounds nuw i8, ptr %5, i64 32
  %26 = load i32, ptr %25, align 8, !tbaa !95
  %27 = icmp slt i32 %24, %26
  br i1 %27, label %.lr.ph.preheader, label %.critedge34

.lr.ph.preheader:                                 ; preds = %19
  %28 = sext i32 %24 to i64
  br label %.lr.ph

.lr.ph:                                           ; preds = %.lr.ph.preheader, %35
  %indvars.iv = phi i64 [ %28, %.lr.ph.preheader ], [ %indvars.iv.next, %35 ]
  %29 = load ptr, ptr %8, align 8, !tbaa !103
  %30 = getelementptr inbounds %struct.VVCRowThread, ptr %29, i64 %indvars.iv
  %31 = getelementptr inbounds nuw [2 x i32], ptr %30, i64 0, i64 %12
  %32 = load atomic i32, ptr %31 seq_cst, align 4
  %33 = load i32, ptr %15, align 4, !tbaa !89
  %34 = icmp eq i32 %32, %33
  br i1 %34, label %35, label %.critedge

35:                                               ; preds = %.lr.ph
  %indvars.iv.next = add nsw i64 %indvars.iv, 1
  %36 = load i32, ptr %25, align 8, !tbaa !95
  %37 = sext i32 %36 to i64
  %38 = icmp slt i64 %indvars.iv.next, %37
  br i1 %38, label %.lr.ph, label %.critedge, !llvm.loop !187

.critedge:                                        ; preds = %.lr.ph, %35
  %.0.lcssa.ph.in = phi i64 [ %indvars.iv, %.lr.ph ], [ %indvars.iv.next, %35 ]
  %.0.lcssa.ph = trunc i64 %.0.lcssa.ph.in to i32
  %.not = icmp eq i32 %24, %.0.lcssa.ph
  br i1 %.not, label %.critedge34, label %39

39:                                               ; preds = %.critedge
  store i32 %.0.lcssa.ph, ptr %23, align 4, !tbaa !128
  %40 = tail call i32 @pthread_mutex_unlock(ptr noundef nonnull %20) #7
  %41 = load i32, ptr %25, align 8, !tbaa !95
  %42 = icmp eq i32 %41, %.0.lcssa.ph
  %43 = mul nsw i32 %7, %.0.lcssa.ph
  %44 = select i1 %42, i32 2147483647, i32 %43
  %45 = getelementptr inbounds nuw i8, ptr %0, i64 18952
  %46 = load ptr, ptr %45, align 8, !tbaa !140
  tail call void @ff_vvc_report_progress(ptr noundef %46, i32 noundef %2, i32 noundef %44) #7
  br label %48

.critedge34:                                      ; preds = %19, %.critedge
  %47 = tail call i32 @pthread_mutex_unlock(ptr noundef nonnull %20) #7
  br label %48

48:                                               ; preds = %39, %.critedge34, %3
  ret void
}